; Function Attrs: inlinehint nounwind uwtable
define internal fastcc i64 @OutputBuffer_Grow(ptr noundef nonnull captures(none) %0, ptr noundef writeonly captures(none) %1, ptr noundef captures(none) %2) unnamed_addr #8 {
  %4 = load i64, ptr %2, align 8, !tbaa !60
  %5 = load ptr, ptr %0, align 8, !tbaa !58
  %6 = getelementptr i8, ptr %5, i64 16
  %.val.i = load i64, ptr %6, align 8, !tbaa !70
  %.not.i = icmp eq i64 %4, 0
  br i1 %.not.i, label %9, label %7

7:                                                ; preds = %3
  %8 = load ptr, ptr @PyExc_SystemError, align 8, !tbaa !15
  tail call void @PyErr_SetString(ptr noundef %8, ptr noundef nonnull @.str.76) #10
  br label %_BlocksOutputBuffer_Grow.exit

9:                                                ; preds = %3
  %10 = icmp slt i64 %.val.i, 17
  br i1 %10, label %11, label %._crit_edge.i

11:                                               ; preds = %9
  %12 = getelementptr [17 x i64], ptr @BUFFER_BLOCK_SIZE, i64 0, i64 %.val.i
  %13 = load i64, ptr %12, align 8, !tbaa !60
  br label %._crit_edge.i

._crit_edge.i:                                    ; preds = %11, %9
  %.023.i = phi i64 [ %13, %11 ], [ 268435456, %9 ]
  %14 = getelementptr inbounds nuw i8, ptr %0, i64 16
  %15 = load i64, ptr %14, align 8, !tbaa !65
  %16 = getelementptr inbounds nuw i8, ptr %0, i64 8
  %17 = load i64, ptr %16, align 8, !tbaa !64
  %18 = sub i64 %15, %17
  %spec.select.i = tail call i64 @llvm.smin.i64(i64 %.023.i, i64 %18)
  %19 = icmp slt i64 %15, 0
  %.1.i = select i1 %19, i64 %.023.i, i64 %spec.select.i
  %20 = sub i64 9223372036854775807, %17
  %21 = icmp sgt i64 %.1.i, %20
  br i1 %21, label %22, label %24

22:                                               ; preds = %._crit_edge.i
  %23 = load ptr, ptr @PyExc_MemoryError, align 8, !tbaa !15
  tail call void @PyErr_SetString(ptr noundef %23, ptr noundef nonnull @unable_allocate_msg) #10
  br label %_BlocksOutputBuffer_Grow.exit

24:                                               ; preds = %._crit_edge.i
  %25 = tail call ptr @PyBytes_FromStringAndSize(ptr noundef null, i64 noundef %.1.i) #10
  %26 = icmp eq ptr %25, null
  br i1 %26, label %27, label %29

27:                                               ; preds = %24
  %28 = load ptr, ptr @PyExc_MemoryError, align 8, !tbaa !15
  tail call void @PyErr_SetString(ptr noundef %28, ptr noundef nonnull @unable_allocate_msg) #10
  br label %_BlocksOutputBuffer_Grow.exit

29:                                               ; preds = %24
  %30 = load ptr, ptr %0, align 8, !tbaa !58
  %31 = tail call i32 @PyList_Append(ptr noundef %30, ptr noundef nonnull %25) #10
  %32 = icmp slt i32 %31, 0
  %33 = load i32, ptr %25, align 8, !tbaa !14
  %.not.i28.i = icmp sgt i32 %33, -1
  br i1 %32, label %34, label %39

34:                                               ; preds = %29
  br i1 %.not.i28.i, label %35, label %_BlocksOutputBuffer_Grow.exit

35:                                               ; preds = %34
  %36 = add nsw i32 %33, -1
  store i32 %36, ptr %25, align 8, !tbaa !14
  %37 = icmp eq i32 %36, 0
  br i1 %37, label %38, label %_BlocksOutputBuffer_Grow.exit

38:                                               ; preds = %35
  tail call void @_Py_Dealloc(ptr noundef nonnull %25) #10
  br label %_BlocksOutputBuffer_Grow.exit

39:                                               ; preds = %29
  br i1 %.not.i28.i, label %40, label %Py_DECREF.exit.i

40:                                               ; preds = %39
  %41 = add nsw i32 %33, -1
  store i32 %41, ptr %25, align 8, !tbaa !14
  %42 = icmp eq i32 %41, 0
  br i1 %42, label %43, label %Py_DECREF.exit.i

43:                                               ; preds = %40
  tail call void @_Py_Dealloc(ptr noundef nonnull %25) #10
  br label %Py_DECREF.exit.i

Py_DECREF.exit.i:                                 ; preds = %43, %40, %39
  %44 = load i64, ptr %16, align 8, !tbaa !64
  %45 = add i64 %44, %.1.i
  store i64 %45, ptr %16, align 8, !tbaa !64
  %46 = getelementptr inbounds nuw i8, ptr %25, i64 32
  store ptr %46, ptr %1, align 8, !tbaa !66
  br label %_BlocksOutputBuffer_Grow.exit

_BlocksOutputBuffer_Grow.exit:                    ; preds = %7, %22, %27, %34, %35, %38, %Py_DECREF.exit.i
  %.0.i = phi i64 [ -1, %7 ], [ -1, %22 ], [ -1, %27 ], [ %.1.i, %Py_DECREF.exit.i ], [ -1, %34 ], [ -1, %35 ], [ -1, %38 ]
  store i64 %.0.i, ptr %2, align 8, !tbaa !60
  ret i64 %.0.i
}